; Function Attrs: nounwind uwtable
define internal noundef i32 @rsa_oaep_cb(i32 noundef %0, ptr noundef readonly captures(none) %1, ptr readnone captures(none) %2, ptr readnone captures(none) %3) #1 {
  %5 = icmp eq i32 %0, 2
  br i1 %5, label %6, label %10

6:                                                ; preds = %4
  %7 = load ptr, ptr %1, align 8, !tbaa !3
  %8 = getelementptr inbounds nuw i8, ptr %7, i64 24
  %9 = load ptr, ptr %8, align 8, !tbaa !28
  tail call void @X509_ALGOR_free(ptr noundef %9) #3
  br label %10

10:                                               ; preds = %6, %4
  ret i32 1
}